target datalayout = "e-m:e-p270:32:32-p271:32:32-p272:64:64-i64:64-i128:128-f80:128-n8:16:32:64-S128"
target triple = "x86_64-pc-linux-gnu"

; Function Attrs: nounwind uwtable
define hidden ptr @file_copystr(ptr noundef %0, i64 noundef %1, i64 noundef %2, ptr noundef %3) #0 {
  %5 = alloca ptr, align 8
  %6 = alloca ptr, align 8
  %7 = alloca i64, align 8
  %8 = alloca i64, align 8
  %9 = alloca ptr, align 8
  store ptr %0, ptr %6, align 8
  store i64 %1, ptr %7, align 8
  store i64 %2, ptr %8, align 8
  store ptr %3, ptr %9, align 8
  %10 = load i64, ptr %7, align 8
  %11 = icmp eq i64 %10, 0
  br i1 %11, label %12, label %14

12:                                               ; preds = %4
  %13 = load ptr, ptr %6, align 8
  store ptr %13, ptr %5, align 8
  br label %29

14:                                               ; preds = %4
  %15 = load i64, ptr %8, align 8
  %16 = load i64, ptr %7, align 8
  %17 = icmp uge i64 %15, %16
  br i1 %17, label %18, label %21

18:                                               ; preds = %14
  %19 = load i64, ptr %7, align 8
  %20 = sub i64 %19, 1
  store i64 %20, ptr %8, align 8
  br label %21

21:                                               ; preds = %18, %14
  %22 = load ptr, ptr %6, align 8
  %23 = load ptr, ptr %9, align 8
  %24 = load i64, ptr %8, align 8
  call void @llvm.memcpy.p0.p0.i64(ptr align 1 %22, ptr align 1 %23, i64 %24, i1 false)
  %25 = load ptr, ptr %6, align 8
  %26 = load i64, ptr %8, align 8
  %27 = getelementptr inbounds i8, ptr %25, i64 %26
  store i8 0, ptr %27, align 1
  %28 = load ptr, ptr %6, align 8
  store ptr %28, ptr %5, align 8
  br label %29

29:                                               ; preds = %21, %12
  %30 = load ptr, ptr %5, align 8
  ret ptr %30
}