; Function Attrs: mustprogress nofree norecurse nosync nounwind willreturn memory(argmem: readwrite) uwtable
define hidden noundef ptr @file_copystr(ptr noundef returned writeonly %0, i64 noundef %1, i64 noundef %2, ptr nocapture noundef readonly %3) local_unnamed_addr #0 {
  %5 = icmp eq i64 %1, 0
  br i1 %5, label %9, label %6

6:                                                ; preds = %4
  %.not = icmp ult i64 %2, %1
  %7 = add i64 %1, -1
  %spec.select = select i1 %.not, i64 %2, i64 %7
  tail call void @llvm.memcpy.p0.p0.i64(ptr align 1 %0, ptr align 1 %3, i64 %spec.select, i1 false)
  %8 = getelementptr inbounds i8, ptr %0, i64 %spec.select
  store i8 0, ptr %8, align 1
  br label %9

9:                                                ; preds = %4, %6
  ret ptr %0
}